target datalayout = "e-m:e-p270:32:32-p271:32:32-p272:64:64-i64:64-i128:128-f80:128-n8:16:32:64-S128"
target triple = "x86_64-pc-linux-gnu"

%class.JSON = type <{ ptr, ptr, ptr, ptr, ptr, i32, i32, i32, i8, i8, [2 x i8] }>
%struct.__va_list_tag = type { i32, i32, ptr, ptr }

@.str.48 = private unnamed_addr constant [13 x i8] c"Syntax error\00", align 1
@.str.49 = private unnamed_addr constant [15 x i8] c"Internal error\00", align 1
@.str.50 = private unnamed_addr constant [10 x i8] c"Key error\00", align 1
@.str.51 = private unnamed_addr constant [12 x i8] c"Value error\00", align 1
@g_assert_poison = external global ptr, align 8
@.str.52 = private unnamed_addr constant [37 x i8] c"src/hotspot/share/utilities/json.cpp\00", align 1
@.str.53 = private unnamed_addr constant [14 x i8] c"Unknown error\00", align 1
@.str.54 = private unnamed_addr constant [24 x i8] c"%s on line %u byte %u: \00", align 1
@.str.55 = private unnamed_addr constant [7 x i8] c"  Got \00", align 1
@.str.56 = private unnamed_addr constant [5 x i8] c"EOS.\00", align 1
@.str.57 = private unnamed_addr constant [6 x i8] c"  At \00", align 1
@.str.58 = private unnamed_addr constant [2 x i8] c"'\00", align 1
@.str.59 = private unnamed_addr constant [3 x i8] c"%c\00", align 1
@.str.60 = private unnamed_addr constant [3 x i8] c"'.\00", align 1
@.str.61 = private unnamed_addr constant [3 x i8] c"%s\00", align 1

; Function Attrs: mustprogress nounwind uwtable
define internal noundef ptr @_ZL10strchrnul_PKci(ptr noundef %0, i32 noundef %1) #1 {
  %3 = alloca ptr, align 8
  %4 = alloca i32, align 4
  %5 = alloca ptr, align 8
  store ptr %0, ptr %3, align 8
  store i32 %1, ptr %4, align 4
  %6 = load ptr, ptr %3, align 8
  %7 = load i32, ptr %4, align 4
  %8 = call noundef ptr @strchr(ptr noundef %6, i32 noundef %7) #8
  store ptr %8, ptr %5, align 8
  %9 = load ptr, ptr %5, align 8
  %10 = icmp eq ptr %9, null
  br i1 %10, label %11, label %16

11:                                               ; preds = %2
  %12 = load ptr, ptr %3, align 8
  %13 = load ptr, ptr %3, align 8
  %14 = call i64 @strlen(ptr noundef %13) #8
  %15 = getelementptr inbounds i8, ptr %12, i64 %14
  br label %18

16:                                               ; preds = %2
  %17 = load ptr, ptr %5, align 8
  br label %18

18:                                               ; preds = %16, %11
  %19 = phi ptr [ %15, %11 ], [ %17, %16 ]
  ret ptr %19
}

; Function Attrs: mustprogress nounwind uwtable
define hidden noundef ptr @_ZN4JSON8strerrorENS_10JSON_ERRORE(ptr noundef nonnull align 8 dereferenceable(54) %0, i32 noundef %1) #1 align 2 {
  %3 = alloca ptr, align 8
  %4 = alloca ptr, align 8
  %5 = alloca i32, align 4
  store ptr %0, ptr %4, align 8
  store i32 %1, ptr %5, align 4
  %6 = load i32, ptr %5, align 4
  switch i32 %6, label %11 [
    i32 1, label %7
    i32 0, label %8
    i32 2, label %9
    i32 3, label %10
  ]

7:                                                ; preds = %2
  store ptr @.str.48, ptr %3, align 8
  br label %15

8:                                                ; preds = %2
  store ptr @.str.49, ptr %3, align 8
  br label %15

9:                                                ; preds = %2
  store ptr @.str.50, ptr %3, align 8
  br label %15

10:                                               ; preds = %2
  store ptr @.str.51, ptr %3, align 8
  br label %15

11:                                               ; preds = %2
  br label %12

12:                                               ; preds = %11
  %13 = load ptr, ptr @g_assert_poison, align 8
  store i8 88, ptr %13, align 1
  call void @_Z28report_should_not_reach_herePKci(ptr noundef @.str.52, i32 noundef 637) #10
  unreachable

14:                                               ; No predecessors!
  store ptr @.str.53, ptr %3, align 8
  br label %15

15:                                               ; preds = %14, %10, %9, %8, %7
  %16 = load ptr, ptr %3, align 8
  ret ptr %16
}

; Function Attrs: mustprogress nounwind uwtable
define hidden void @_ZN4JSON5errorENS_10JSON_ERROREPKcz(ptr noundef nonnull align 8 dereferenceable(54) %0, i32 noundef %1, ptr noundef %2, ...) #1 align 2 {
  %4 = alloca ptr, align 8
  %5 = alloca i32, align 4
  %6 = alloca ptr, align 8
  %7 = alloca ptr, align 8
  %8 = alloca ptr, align 8
  %9 = alloca i64, align 8
  %10 = alloca [1 x %struct.__va_list_tag], align 16
  %11 = alloca i8, align 1
  store ptr %0, ptr %4, align 8
  store i32 %1, ptr %5, align 4
  store ptr %2, ptr %6, align 8
  %12 = load ptr, ptr %4, align 8
  %13 = getelementptr inbounds %class.JSON, ptr %12, i32 0, i32 9
  store i8 0, ptr %13, align 1
  %14 = getelementptr inbounds %class.JSON, ptr %12, i32 0, i32 8
  %15 = load i8, ptr %14, align 4
  %16 = trunc i8 %15 to i1
  br i1 %16, label %94, label %17

17:                                               ; preds = %3
  %18 = getelementptr inbounds %class.JSON, ptr %12, i32 0, i32 1
  %19 = load ptr, ptr %18, align 8
  %20 = load i32, ptr %5, align 4
  %21 = call noundef ptr @_ZN4JSON8strerrorENS_10JSON_ERRORE(ptr noundef nonnull align 8 dereferenceable(54) %12, i32 noundef %20)
  %22 = getelementptr inbounds %class.JSON, ptr %12, i32 0, i32 6
  %23 = load i32, ptr %22, align 4
  %24 = getelementptr inbounds %class.JSON, ptr %12, i32 0, i32 7
  %25 = load i32, ptr %24, align 8
  %26 = add i32 %25, 1
  call void (ptr, ptr, ...) @_ZN12outputStream5printEPKcz(ptr noundef nonnull align 8 dereferenceable(56) %19, ptr noundef @.str.54, ptr noundef %21, i32 noundef %23, i32 noundef %26)
  %27 = getelementptr inbounds [1 x %struct.__va_list_tag], ptr %10, i64 0, i64 0
  call void @llvm.va_start.p0(ptr %27)
  %28 = getelementptr inbounds %class.JSON, ptr %12, i32 0, i32 1
  %29 = load ptr, ptr %28, align 8
  %30 = load ptr, ptr %6, align 8
  %31 = getelementptr inbounds [1 x %struct.__va_list_tag], ptr %10, i64 0, i64 0
  call void @_ZN12outputStream6vprintEPKcP13__va_list_tag(ptr noundef nonnull align 8 dereferenceable(56) %29, ptr noundef %30, ptr noundef %31)
  %32 = getelementptr inbounds %class.JSON, ptr %12, i32 0, i32 1
  %33 = load ptr, ptr %32, align 8
  call void @_ZN12outputStream2crEv(ptr noundef nonnull align 8 dereferenceable(56) %33)
  %34 = getelementptr inbounds [1 x %struct.__va_list_tag], ptr %10, i64 0, i64 0
  call void @llvm.va_end.p0(ptr %34)
  %35 = getelementptr inbounds %class.JSON, ptr %12, i32 0, i32 4
  %36 = load ptr, ptr %35, align 8
  %37 = getelementptr inbounds %class.JSON, ptr %12, i32 0, i32 7
  %38 = load i32, ptr %37, align 8
  %39 = zext i32 %38 to i64
  %40 = sub i64 0, %39
  %41 = getelementptr inbounds i8, ptr %36, i64 %40
  store ptr %41, ptr %7, align 8
  %42 = getelementptr inbounds %class.JSON, ptr %12, i32 0, i32 3
  %43 = load ptr, ptr %42, align 8
  %44 = load i8, ptr %43, align 1
  store i8 %44, ptr %11, align 1
  %45 = load i8, ptr %11, align 1
  %46 = zext i8 %45 to i32
  %47 = icmp eq i32 %46, 0
  br i1 %47, label %48, label %53

48:                                               ; preds = %17
  %49 = getelementptr inbounds %class.JSON, ptr %12, i32 0, i32 1
  %50 = load ptr, ptr %49, align 8
  call void (ptr, ptr, ...) @_ZN12outputStream5printEPKcz(ptr noundef nonnull align 8 dereferenceable(56) %50, ptr noundef @.str.55)
  %51 = getelementptr inbounds %class.JSON, ptr %12, i32 0, i32 1
  %52 = load ptr, ptr %51, align 8
  call void (ptr, ptr, ...) @_ZN12outputStream8print_crEPKcz(ptr noundef nonnull align 8 dereferenceable(56) %52, ptr noundef @.str.56)
  br label %53

53:                                               ; preds = %48, %17
  %54 = getelementptr inbounds %class.JSON, ptr %12, i32 0, i32 4
  %55 = load ptr, ptr %54, align 8
  store ptr %55, ptr %8, align 8
  %56 = load ptr, ptr %8, align 8
  %57 = load i8, ptr %56, align 1
  store i8 %57, ptr %11, align 1
  %58 = load i8, ptr %11, align 1
  %59 = zext i8 %58 to i32
  %60 = icmp sgt i32 %59, 32
  br i1 %60, label %61, label %82

61:                                               ; preds = %53
  %62 = getelementptr inbounds %class.JSON, ptr %12, i32 0, i32 1
  %63 = load ptr, ptr %62, align 8
  call void (ptr, ptr, ...) @_ZN12outputStream5printEPKcz(ptr noundef nonnull align 8 dereferenceable(56) %63, ptr noundef @.str.57)
  %64 = getelementptr inbounds %class.JSON, ptr %12, i32 0, i32 1
  %65 = load ptr, ptr %64, align 8
  call void (ptr, ptr, ...) @_ZN12outputStream5printEPKcz(ptr noundef nonnull align 8 dereferenceable(56) %65, ptr noundef @.str.58)
  br label %66

66:                                               ; preds = %70, %61
  %67 = load i8, ptr %11, align 1
  %68 = zext i8 %67 to i32
  %69 = icmp sgt i32 %68, 32
  br i1 %69, label %70, label %79

70:                                               ; preds = %66
  %71 = getelementptr inbounds %class.JSON, ptr %12, i32 0, i32 1
  %72 = load ptr, ptr %71, align 8
  %73 = load i8, ptr %11, align 1
  %74 = zext i8 %73 to i32
  call void (ptr, ptr, ...) @_ZN12outputStream5printEPKcz(ptr noundef nonnull align 8 dereferenceable(56) %72, ptr noundef @.str.59, i32 noundef %74)
  %75 = load ptr, ptr %8, align 8
  %76 = getelementptr inbounds i8, ptr %75, i32 1
  store ptr %76, ptr %8, align 8
  %77 = load ptr, ptr %8, align 8
  %78 = load i8, ptr %77, align 1
  store i8 %78, ptr %11, align 1
  br label %66, !llvm.loop !6

79:                                               ; preds = %66
  %80 = getelementptr inbounds %class.JSON, ptr %12, i32 0, i32 1
  %81 = load ptr, ptr %80, align 8
  call void (ptr, ptr, ...) @_ZN12outputStream8print_crEPKcz(ptr noundef nonnull align 8 dereferenceable(56) %81, ptr noundef @.str.60)
  br label %82

82:                                               ; preds = %79, %53
  %83 = getelementptr inbounds %class.JSON, ptr %12, i32 0, i32 4
  %84 = load ptr, ptr %83, align 8
  %85 = call noundef ptr @_ZL10strchrnul_PKci(ptr noundef %84, i32 noundef 10)
  store ptr %85, ptr %8, align 8
  %86 = load ptr, ptr %8, align 8
  %87 = load ptr, ptr %7, align 8
  %88 = ptrtoint ptr %86 to i64
  %89 = ptrtoint ptr %87 to i64
  %90 = sub i64 %88, %89
  store i64 %90, ptr %9, align 8
  %91 = getelementptr inbounds %class.JSON, ptr %12, i32 0, i32 1
  %92 = load ptr, ptr %91, align 8
  %93 = load ptr, ptr %7, align 8
  call void (ptr, ptr, ...) @_ZN12outputStream8print_crEPKcz(ptr noundef nonnull align 8 dereferenceable(56) %92, ptr noundef @.str.61, ptr noundef %93)
  br label %94

94:                                               ; preds = %82, %3
  ret void
}