; Function Attrs: mustprogress nounwind uwtable
define hidden void @_ZN4JSON5errorENS_10JSON_ERROREPKcz(ptr nocapture noundef nonnull align 8 dereferenceable(54) %0, i32 noundef %1, ptr noundef %2, ...) local_unnamed_addr #1 align 2 {
  %4 = alloca [1 x %struct.__va_list_tag], align 16
  %5 = getelementptr inbounds i8, ptr %0, i64 53
  store i8 0, ptr %5, align 1
  %6 = getelementptr inbounds i8, ptr %0, i64 52
  %7 = load i8, ptr %6, align 4
  %8 = trunc i8 %7 to i1
  br i1 %8, label %52, label %9

9:                                                ; preds = %3
  %10 = getelementptr inbounds i8, ptr %0, i64 8
  %11 = icmp ult i32 %1, 4
  br i1 %11, label %switch.lookup, label %12

12:                                               ; preds = %9
  %13 = load ptr, ptr @g_assert_poison, align 8
  store i8 88, ptr %13, align 1
  tail call void @_Z28report_should_not_reach_herePKci(ptr noundef nonnull @.str.52, i32 noundef 637) #12
  unreachable

switch.lookup:                                    ; preds = %9
  %14 = load ptr, ptr %10, align 8
  %15 = zext nneg i32 %1 to i64
  %switch.gep = getelementptr inbounds [4 x ptr], ptr @switch.table._ZN4JSON8strerrorENS_10JSON_ERRORE, i64 0, i64 %15
  %switch.load = load ptr, ptr %switch.gep, align 8
  %16 = getelementptr inbounds i8, ptr %0, i64 44
  %17 = load i32, ptr %16, align 4
  %18 = getelementptr inbounds i8, ptr %0, i64 48
  %19 = load i32, ptr %18, align 8
  %20 = add i32 %19, 1
  tail call void (ptr, ptr, ...) @_ZN12outputStream5printEPKcz(ptr noundef nonnull align 8 dereferenceable(56) %14, ptr noundef nonnull @.str.54, ptr noundef nonnull %switch.load, i32 noundef %17, i32 noundef %20) #13
  call void @llvm.va_start.p0(ptr nonnull %4)
  %21 = load ptr, ptr %10, align 8
  call void @_ZN12outputStream6vprintEPKcP13__va_list_tag(ptr noundef nonnull align 8 dereferenceable(56) %21, ptr noundef %2, ptr noundef nonnull %4) #13
  %22 = load ptr, ptr %10, align 8
  call void @_ZN12outputStream2crEv(ptr noundef nonnull align 8 dereferenceable(56) %22) #13
  call void @llvm.va_end.p0(ptr nonnull %4)
  %23 = getelementptr inbounds i8, ptr %0, i64 32
  %24 = load ptr, ptr %23, align 8
  %25 = load i32, ptr %18, align 8
  %26 = zext i32 %25 to i64
  %27 = sub nsw i64 0, %26
  %28 = getelementptr inbounds i8, ptr %24, i64 %27
  %29 = getelementptr inbounds i8, ptr %0, i64 24
  %30 = load ptr, ptr %29, align 8
  %31 = load i8, ptr %30, align 1
  %32 = icmp eq i8 %31, 0
  br i1 %32, label %33, label %36

33:                                               ; preds = %switch.lookup
  %34 = load ptr, ptr %10, align 8
  call void (ptr, ptr, ...) @_ZN12outputStream5printEPKcz(ptr noundef nonnull align 8 dereferenceable(56) %34, ptr noundef nonnull @.str.55) #13
  %35 = load ptr, ptr %10, align 8
  call void (ptr, ptr, ...) @_ZN12outputStream8print_crEPKcz(ptr noundef nonnull align 8 dereferenceable(56) %35, ptr noundef nonnull @.str.56) #13
  %.pre = load ptr, ptr %23, align 8
  br label %36

36:                                               ; preds = %33, %switch.lookup
  %37 = phi ptr [ %.pre, %33 ], [ %24, %switch.lookup ]
  %38 = load i8, ptr %37, align 1
  %39 = icmp ugt i8 %38, 32
  br i1 %39, label %40, label %_ZL10strchrnul_PKci.exit

40:                                               ; preds = %36
  %41 = load ptr, ptr %10, align 8
  call void (ptr, ptr, ...) @_ZN12outputStream5printEPKcz(ptr noundef nonnull align 8 dereferenceable(56) %41, ptr noundef nonnull @.str.57) #13
  %42 = load ptr, ptr %10, align 8
  call void (ptr, ptr, ...) @_ZN12outputStream5printEPKcz(ptr noundef nonnull align 8 dereferenceable(56) %42, ptr noundef nonnull @.str.58) #13
  br label %43

43:                                               ; preds = %40, %43
  %.015 = phi i8 [ %38, %40 ], [ %47, %43 ]
  %.01214 = phi ptr [ %37, %40 ], [ %46, %43 ]
  %44 = zext i8 %.015 to i32
  %45 = load ptr, ptr %10, align 8
  call void (ptr, ptr, ...) @_ZN12outputStream5printEPKcz(ptr noundef nonnull align 8 dereferenceable(56) %45, ptr noundef nonnull @.str.59, i32 noundef %44) #13
  %46 = getelementptr inbounds i8, ptr %.01214, i64 1
  %47 = load i8, ptr %46, align 1
  %48 = icmp ugt i8 %47, 32
  br i1 %48, label %43, label %49, !llvm.loop !6

49:                                               ; preds = %43
  %50 = load ptr, ptr %10, align 8
  call void (ptr, ptr, ...) @_ZN12outputStream8print_crEPKcz(ptr noundef nonnull align 8 dereferenceable(56) %50, ptr noundef nonnull @.str.60) #13
  br label %_ZL10strchrnul_PKci.exit

_ZL10strchrnul_PKci.exit:                         ; preds = %49, %36
  %51 = load ptr, ptr %10, align 8
  call void (ptr, ptr, ...) @_ZN12outputStream8print_crEPKcz(ptr noundef nonnull align 8 dereferenceable(56) %51, ptr noundef nonnull @.str.61, ptr noundef %28) #13
  br label %52

52:                                               ; preds = %_ZL10strchrnul_PKci.exit, %3
  ret void
}